; Function Attrs: nounwind uwtable
define internal i32 @async_check_interrupt(ptr noundef readonly captures(none) %0) #0 {
  %2 = getelementptr inbounds nuw i8, ptr %0, i64 16
  %3 = load ptr, ptr %2, align 8, !tbaa !9
  %4 = getelementptr inbounds nuw i8, ptr %3, i64 240
  %5 = load i32, ptr %4, align 8, !tbaa !35
  %.not = icmp eq i32 %5, 0
  br i1 %.not, label %6, label %10

6:                                                ; preds = %1
  %7 = getelementptr inbounds nuw i8, ptr %3, i64 248
  %8 = tail call i32 @ff_check_interrupt(ptr noundef nonnull %7) #7
  %.not6 = icmp eq i32 %8, 0
  br i1 %.not6, label %._crit_edge, label %9

._crit_edge:                                      ; preds = %6
  %.pre = load i32, ptr %4, align 8, !tbaa !35
  br label %10

9:                                                ; preds = %6
  store i32 1, ptr %4, align 8, !tbaa !35
  br label %10

10:                                               ; preds = %9, %._crit_edge, %1
  %.0 = phi i32 [ 1, %1 ], [ %.pre, %._crit_edge ], [ 1, %9 ]
  ret i32 %.0
}